target datalayout = "e-m:e-p270:32:32-p271:32:32-p272:64:64-i64:64-i128:128-f80:128-n8:16:32:64-S128"
target triple = "x86_64-pc-linux-gnu"

%class.FileIO = type <{ %struct.duFileIO, ptr, i32, [4 x i8] }>
%struct.duFileIO = type { ptr }

; Function Attrs: mustprogress uwtable
define dso_local noundef zeroext i1 @_ZN6FileIO4readEPvm(ptr noundef nonnull align 8 dereferenceable(20) %0, ptr noundef %1, i64 noundef %2) unnamed_addr #0 align 2 {
  %4 = alloca i1, align 1
  %5 = alloca ptr, align 8
  %6 = alloca ptr, align 8
  %7 = alloca i64, align 8
  %8 = alloca i64, align 8
  store ptr %0, ptr %5, align 8
  store ptr %1, ptr %6, align 8
  store i64 %2, ptr %7, align 8
  %9 = load ptr, ptr %5, align 8
  %10 = getelementptr inbounds %class.FileIO, ptr %9, i32 0, i32 1
  %11 = load ptr, ptr %10, align 8
  %12 = icmp ne ptr %11, null
  br i1 %12, label %13, label %17

13:                                               ; preds = %3
  %14 = getelementptr inbounds %class.FileIO, ptr %9, i32 0, i32 2
  %15 = load i32, ptr %14, align 8
  %16 = icmp ne i32 %15, 2
  br i1 %16, label %17, label %18

17:                                               ; preds = %13, %3
  store i1 false, ptr %4, align 1
  br label %26

18:                                               ; preds = %13
  %19 = load ptr, ptr %6, align 8
  %20 = load i64, ptr %7, align 8
  %21 = getelementptr inbounds %class.FileIO, ptr %9, i32 0, i32 1
  %22 = load ptr, ptr %21, align 8
  %23 = call i64 @fread(ptr noundef %19, i64 noundef %20, i64 noundef 1, ptr noundef %22)
  store i64 %23, ptr %8, align 8
  %24 = load i64, ptr %8, align 8
  %25 = icmp eq i64 %24, 1
  store i1 %25, ptr %4, align 1
  br label %26

26:                                               ; preds = %18, %17
  %27 = load i1, ptr %4, align 1
  ret i1 %27
}