; Function Attrs: mustprogress nofree nounwind uwtable
define dso_local noundef zeroext i1 @_ZN6FileIO4readEPvm(ptr nocapture noundef nonnull readonly align 8 dereferenceable(20) %0, ptr nocapture noundef %1, i64 noundef %2) unnamed_addr #6 align 2 {
  %4 = getelementptr inbounds i8, ptr %0, i64 8
  %5 = load ptr, ptr %4, align 8
  %.not = icmp ne ptr %5, null
  %6 = getelementptr inbounds i8, ptr %0, i64 16
  %7 = load i32, ptr %6, align 8
  %.not5 = icmp eq i32 %7, 2
  %or.cond = select i1 %.not, i1 %.not5, i1 false
  br i1 %or.cond, label %8, label %11

8:                                                ; preds = %3
  %9 = tail call i64 @fread(ptr noundef %1, i64 noundef %2, i64 noundef 1, ptr noundef nonnull %5)
  %10 = icmp eq i64 %9, 1
  br label %11

11:                                               ; preds = %3, %8
  %.0 = phi i1 [ %10, %8 ], [ false, %3 ]
  ret i1 %.0
}